target datalayout = "e-m:e-p270:32:32-p271:32:32-p272:64:64-i64:64-i128:128-f80:128-n8:16:32:64-S128"
target triple = "x86_64-pc-linux-gnu"

%struct.AVFormatContext = type { ptr, ptr, ptr, ptr, ptr, i32, i32, ptr, i32, ptr, i32, ptr, ptr, i64, i64, i64, i32, i32, i32, i64, i64, ptr, i32, i32, ptr, i32, i32, i32, i32, ptr, i64, i32, i32, %struct.AVIOInterruptCB, i32, i32, i32, i32, i64, i32, i32, i32, i32, i32, i32, i32, i32, i32, i32, i32, i32, i64, i32, i32, i32, i32, i32, ptr, ptr, ptr, ptr, i32, ptr, ptr, ptr, ptr, i32, ptr, ptr, i64, ptr, ptr, ptr, i64 }
%struct.AVIOInterruptCB = type { ptr, ptr }
%struct.AVStream = type { ptr, i32, i32, ptr, ptr, %struct.AVRational, i64, i64, i64, i32, i32, %struct.AVRational, ptr, %struct.AVRational, %struct.AVPacket, i32, %struct.AVRational, i32 }
%struct.AVPacket = type { ptr, i64, i64, ptr, i32, i32, i32, ptr, i32, i64, i64, ptr, ptr, %struct.AVRational }
%struct.AVRational = type { i32, i32 }
%struct.AVCodecParameters = type { i32, i32, i32, ptr, i32, ptr, i32, i32, i64, i32, i32, i32, i32, i32, i32, %struct.AVRational, %struct.AVRational, i32, i32, i32, i32, i32, i32, i32, %struct.AVChannelLayout, i32, i32, i32, i32, i32, i32 }
%struct.AVChannelLayout = type { i32, i32, %union.anon, ptr }
%union.anon = type { i64 }

@.str.3 = private unnamed_addr constant [28 x i8] c"skipping unknown chunk: %X\0A\00", align 1
@.str.4 = private unnamed_addr constant [9 x i8] c"codec %X\00", align 1

; Function Attrs: nounwind uwtable
define internal i32 @threedostr_read_header(ptr noundef %0) #0 {
  %2 = alloca i32, align 4
  %3 = alloca ptr, align 8
  %4 = alloca i32, align 4
  %5 = alloca i32, align 4
  %6 = alloca i32, align 4
  %7 = alloca i32, align 4
  %8 = alloca i32, align 4
  %9 = alloca ptr, align 8
  %10 = alloca i32, align 4
  store ptr %0, ptr %3, align 8, !tbaa !18
  call void @llvm.lifetime.start.p0(i64 4, ptr %4) #5
  call void @llvm.lifetime.start.p0(i64 4, ptr %5) #5
  store i32 0, ptr %5, align 4, !tbaa !9
  call void @llvm.lifetime.start.p0(i64 4, ptr %6) #5
  call void @llvm.lifetime.start.p0(i64 4, ptr %7) #5
  store i32 -1, ptr %7, align 4, !tbaa !9
  call void @llvm.lifetime.start.p0(i64 4, ptr %8) #5
  store i32 0, ptr %8, align 4, !tbaa !9
  call void @llvm.lifetime.start.p0(i64 8, ptr %9) #5
  br label %11

11:                                               ; preds = %185, %1
  %12 = load ptr, ptr %3, align 8, !tbaa !18
  %13 = getelementptr inbounds nuw %struct.AVFormatContext, ptr %12, i32 0, i32 4
  %14 = load ptr, ptr %13, align 8, !tbaa !20
  %15 = call i32 @avio_feof(ptr noundef %14)
  %16 = icmp ne i32 %15, 0
  br i1 %16, label %21, label %17

17:                                               ; preds = %11
  %18 = load i32, ptr %8, align 4, !tbaa !9
  %19 = icmp ne i32 %18, 0
  %20 = xor i1 %19, true
  br label %21

21:                                               ; preds = %17, %11
  %22 = phi i1 [ false, %11 ], [ %20, %17 ]
  br i1 %22, label %23, label %192

23:                                               ; preds = %21
  %24 = load ptr, ptr %3, align 8, !tbaa !18
  %25 = getelementptr inbounds nuw %struct.AVFormatContext, ptr %24, i32 0, i32 4
  %26 = load ptr, ptr %25, align 8, !tbaa !20
  %27 = call i32 @avio_rl32(ptr noundef %26)
  store i32 %27, ptr %4, align 4, !tbaa !9
  %28 = load ptr, ptr %3, align 8, !tbaa !18
  %29 = getelementptr inbounds nuw %struct.AVFormatContext, ptr %28, i32 0, i32 4
  %30 = load ptr, ptr %29, align 8, !tbaa !20
  %31 = call i32 @avio_rb32(ptr noundef %30)
  store i32 %31, ptr %6, align 4, !tbaa !9
  %32 = load i32, ptr %6, align 4, !tbaa !9
  %33 = icmp ult i32 %32, 8
  br i1 %33, label %34, label %35

34:                                               ; preds = %23
  store i32 -1094995529, ptr %2, align 4
  store i32 1, ptr %10, align 4
  br label %220

35:                                               ; preds = %23
  %36 = load i32, ptr %6, align 4, !tbaa !9
  %37 = sub i32 %36, 8
  store i32 %37, ptr %6, align 4, !tbaa !9
  %38 = load i32, ptr %4, align 4, !tbaa !9
  switch i32 %38, label %182 [
    i32 1280463939, label %39
    i32 1396985427, label %41
    i32 1380206675, label %155
  ]

39:                                               ; preds = %35
  %40 = load i32, ptr %6, align 4, !tbaa !9
  store i32 %40, ptr %7, align 4, !tbaa !9
  br label %185

41:                                               ; preds = %35
  %42 = load i32, ptr %6, align 4, !tbaa !9
  %43 = icmp ult i32 %42, 56
  br i1 %43, label %44, label %45

44:                                               ; preds = %41
  store i32 -1094995529, ptr %2, align 4
  store i32 1, ptr %10, align 4
  br label %220

45:                                               ; preds = %41
  %46 = load ptr, ptr %3, align 8, !tbaa !18
  %47 = getelementptr inbounds nuw %struct.AVFormatContext, ptr %46, i32 0, i32 4
  %48 = load ptr, ptr %47, align 8, !tbaa !20
  %49 = call i64 @avio_skip(ptr noundef %48, i64 noundef 8)
  %50 = load ptr, ptr %3, align 8, !tbaa !18
  %51 = getelementptr inbounds nuw %struct.AVFormatContext, ptr %50, i32 0, i32 4
  %52 = load ptr, ptr %51, align 8, !tbaa !20
  %53 = call i32 @avio_rl32(ptr noundef %52)
  %54 = icmp ne i32 %53, 1380206675
  br i1 %54, label %55, label %56

55:                                               ; preds = %45
  store i32 -1094995529, ptr %2, align 4
  store i32 1, ptr %10, align 4
  br label %220

56:                                               ; preds = %45
  %57 = load ptr, ptr %3, align 8, !tbaa !18
  %58 = getelementptr inbounds nuw %struct.AVFormatContext, ptr %57, i32 0, i32 4
  %59 = load ptr, ptr %58, align 8, !tbaa !20
  %60 = call i64 @avio_skip(ptr noundef %59, i64 noundef 24)
  %61 = load ptr, ptr %3, align 8, !tbaa !18
  %62 = call ptr @avformat_new_stream(ptr noundef %61, ptr noundef null)
  store ptr %62, ptr %9, align 8, !tbaa !35
  %63 = load ptr, ptr %9, align 8, !tbaa !35
  %64 = icmp ne ptr %63, null
  br i1 %64, label %66, label %65

65:                                               ; preds = %56
  store i32 -12, ptr %2, align 4
  store i32 1, ptr %10, align 4
  br label %220

66:                                               ; preds = %56
  %67 = load ptr, ptr %9, align 8, !tbaa !35
  %68 = getelementptr inbounds nuw %struct.AVStream, ptr %67, i32 0, i32 3
  %69 = load ptr, ptr %68, align 8, !tbaa !37
  %70 = getelementptr inbounds nuw %struct.AVCodecParameters, ptr %69, i32 0, i32 0
  store i32 1, ptr %70, align 8, !tbaa !44
  %71 = load ptr, ptr %3, align 8, !tbaa !18
  %72 = getelementptr inbounds nuw %struct.AVFormatContext, ptr %71, i32 0, i32 4
  %73 = load ptr, ptr %72, align 8, !tbaa !20
  %74 = call i32 @avio_rb32(ptr noundef %73)
  %75 = load ptr, ptr %9, align 8, !tbaa !35
  %76 = getelementptr inbounds nuw %struct.AVStream, ptr %75, i32 0, i32 3
  %77 = load ptr, ptr %76, align 8, !tbaa !37
  %78 = getelementptr inbounds nuw %struct.AVCodecParameters, ptr %77, i32 0, i32 25
  store i32 %74, ptr %78, align 8, !tbaa !47
  %79 = load ptr, ptr %3, align 8, !tbaa !18
  %80 = getelementptr inbounds nuw %struct.AVFormatContext, ptr %79, i32 0, i32 4
  %81 = load ptr, ptr %80, align 8, !tbaa !20
  %82 = call i32 @avio_rb32(ptr noundef %81)
  %83 = load ptr, ptr %9, align 8, !tbaa !35
  %84 = getelementptr inbounds nuw %struct.AVStream, ptr %83, i32 0, i32 3
  %85 = load ptr, ptr %84, align 8, !tbaa !37
  %86 = getelementptr inbounds nuw %struct.AVCodecParameters, ptr %85, i32 0, i32 24
  %87 = getelementptr inbounds nuw %struct.AVChannelLayout, ptr %86, i32 0, i32 1
  store i32 %82, ptr %87, align 4, !tbaa !48
  %88 = load ptr, ptr %9, align 8, !tbaa !35
  %89 = getelementptr inbounds nuw %struct.AVStream, ptr %88, i32 0, i32 3
  %90 = load ptr, ptr %89, align 8, !tbaa !37
  %91 = getelementptr inbounds nuw %struct.AVCodecParameters, ptr %90, i32 0, i32 24
  %92 = getelementptr inbounds nuw %struct.AVChannelLayout, ptr %91, i32 0, i32 1
  %93 = load i32, ptr %92, align 4, !tbaa !48
  %94 = icmp sle i32 %93, 0
  br i1 %94, label %102, label %95

95:                                               ; preds = %66
  %96 = load ptr, ptr %9, align 8, !tbaa !35
  %97 = getelementptr inbounds nuw %struct.AVStream, ptr %96, i32 0, i32 3
  %98 = load ptr, ptr %97, align 8, !tbaa !37
  %99 = getelementptr inbounds nuw %struct.AVCodecParameters, ptr %98, i32 0, i32 25
  %100 = load i32, ptr %99, align 8, !tbaa !47
  %101 = icmp sle i32 %100, 0
  br i1 %101, label %102, label %103

102:                                              ; preds = %95, %66
  store i32 -1094995529, ptr %2, align 4
  store i32 1, ptr %10, align 4
  br label %220

103:                                              ; preds = %95
  %104 = load ptr, ptr %3, align 8, !tbaa !18
  %105 = getelementptr inbounds nuw %struct.AVFormatContext, ptr %104, i32 0, i32 4
  %106 = load ptr, ptr %105, align 8, !tbaa !20
  %107 = call i32 @avio_rl32(ptr noundef %106)
  store i32 %107, ptr %5, align 4, !tbaa !9
  %108 = load ptr, ptr %3, align 8, !tbaa !18
  %109 = getelementptr inbounds nuw %struct.AVFormatContext, ptr %108, i32 0, i32 4
  %110 = load ptr, ptr %109, align 8, !tbaa !20
  %111 = call i64 @avio_skip(ptr noundef %110, i64 noundef 4)
  %112 = load i32, ptr %7, align 4, !tbaa !9
  %113 = icmp eq i32 %112, 20
  br i1 %113, label %120, label %114

114:                                              ; preds = %103
  %115 = load i32, ptr %7, align 4, !tbaa !9
  %116 = icmp eq i32 %115, 3
  br i1 %116, label %120, label %117

117:                                              ; preds = %114
  %118 = load i32, ptr %7, align 4, !tbaa !9
  %119 = icmp eq i32 %118, -1
  br i1 %119, label %120, label %136

120:                                              ; preds = %117, %114, %103
  %121 = load ptr, ptr %3, align 8, !tbaa !18
  %122 = getelementptr inbounds nuw %struct.AVFormatContext, ptr %121, i32 0, i32 4
  %123 = load ptr, ptr %122, align 8, !tbaa !20
  %124 = call i32 @avio_rb32(ptr noundef %123)
  %125 = sub i32 %124, 1
  %126 = load ptr, ptr %9, align 8, !tbaa !35
  %127 = getelementptr inbounds nuw %struct.AVStream, ptr %126, i32 0, i32 3
  %128 = load ptr, ptr %127, align 8, !tbaa !37
  %129 = getelementptr inbounds nuw %struct.AVCodecParameters, ptr %128, i32 0, i32 24
  %130 = getelementptr inbounds nuw %struct.AVChannelLayout, ptr %129, i32 0, i32 1
  %131 = load i32, ptr %130, align 4, !tbaa !48
  %132 = udiv i32 %125, %131
  %133 = zext i32 %132 to i64
  %134 = load ptr, ptr %9, align 8, !tbaa !35
  %135 = getelementptr inbounds nuw %struct.AVStream, ptr %134, i32 0, i32 7
  store i64 %133, ptr %135, align 8, !tbaa !49
  br label %152

136:                                              ; preds = %117
  %137 = load ptr, ptr %3, align 8, !tbaa !18
  %138 = getelementptr inbounds nuw %struct.AVFormatContext, ptr %137, i32 0, i32 4
  %139 = load ptr, ptr %138, align 8, !tbaa !20
  %140 = call i32 @avio_rb32(ptr noundef %139)
  %141 = mul i32 %140, 16
  %142 = load ptr, ptr %9, align 8, !tbaa !35
  %143 = getelementptr inbounds nuw %struct.AVStream, ptr %142, i32 0, i32 3
  %144 = load ptr, ptr %143, align 8, !tbaa !37
  %145 = getelementptr inbounds nuw %struct.AVCodecParameters, ptr %144, i32 0, i32 24
  %146 = getelementptr inbounds nuw %struct.AVChannelLayout, ptr %145, i32 0, i32 1
  %147 = load i32, ptr %146, align 4, !tbaa !48
  %148 = udiv i32 %141, %147
  %149 = zext i32 %148 to i64
  %150 = load ptr, ptr %9, align 8, !tbaa !35
  %151 = getelementptr inbounds nuw %struct.AVStream, ptr %150, i32 0, i32 7
  store i64 %149, ptr %151, align 8, !tbaa !49
  br label %152

152:                                              ; preds = %136, %120
  %153 = load i32, ptr %6, align 4, !tbaa !9
  %154 = sub i32 %153, 56
  store i32 %154, ptr %6, align 4, !tbaa !9
  store i32 1, ptr %8, align 4, !tbaa !9
  br label %185

155:                                              ; preds = %35
  %156 = load i32, ptr %6, align 4, !tbaa !9
  %157 = icmp ugt i32 %156, 120
  br i1 %157, label %158, label %181

158:                                              ; preds = %155
  %159 = load ptr, ptr %3, align 8, !tbaa !18
  %160 = getelementptr inbounds nuw %struct.AVFormatContext, ptr %159, i32 0, i32 4
  %161 = load ptr, ptr %160, align 8, !tbaa !20
  %162 = call i64 @avio_skip(ptr noundef %161, i64 noundef 116)
  %163 = load i32, ptr %6, align 4, !tbaa !9
  %164 = sub i32 %163, 120
  store i32 %164, ptr %6, align 4, !tbaa !9
  %165 = load ptr, ptr %3, align 8, !tbaa !18
  %166 = getelementptr inbounds nuw %struct.AVFormatContext, ptr %165, i32 0, i32 4
  %167 = load ptr, ptr %166, align 8, !tbaa !20
  %168 = call i32 @avio_rl32(ptr noundef %167)
  %169 = icmp eq i32 %168, 1280463939
  br i1 %169, label %170, label %180

170:                                              ; preds = %158
  %171 = load i32, ptr %6, align 4, !tbaa !9
  %172 = icmp ugt i32 %171, 4
  br i1 %172, label %173, label %180

173:                                              ; preds = %170
  %174 = load ptr, ptr %3, align 8, !tbaa !18
  %175 = getelementptr inbounds nuw %struct.AVFormatContext, ptr %174, i32 0, i32 4
  %176 = load ptr, ptr %175, align 8, !tbaa !20
  %177 = call i32 @avio_rb32(ptr noundef %176)
  store i32 %177, ptr %7, align 4, !tbaa !9
  %178 = load i32, ptr %6, align 4, !tbaa !9
  %179 = sub i32 %178, 4
  store i32 %179, ptr %6, align 4, !tbaa !9
  br label %180

180:                                              ; preds = %173, %170, %158
  br label %181

181:                                              ; preds = %180, %155
  br label %185

182:                                              ; preds = %35
  %183 = load ptr, ptr %3, align 8, !tbaa !18
  %184 = load i32, ptr %4, align 4, !tbaa !9
  call void (ptr, i32, ptr, ...) @av_log(ptr noundef %183, i32 noundef 48, ptr noundef @.str.3, i32 noundef %184)
  br label %185

185:                                              ; preds = %182, %181, %152, %39
  %186 = load ptr, ptr %3, align 8, !tbaa !18
  %187 = getelementptr inbounds nuw %struct.AVFormatContext, ptr %186, i32 0, i32 4
  %188 = load ptr, ptr %187, align 8, !tbaa !20
  %189 = load i32, ptr %6, align 4, !tbaa !9
  %190 = zext i32 %189 to i64
  %191 = call i64 @avio_skip(ptr noundef %188, i64 noundef %190)
  br label %11, !llvm.loop !50

192:                                              ; preds = %21
  %193 = load i32, ptr %5, align 4, !tbaa !9
  switch i32 %193, label %210 [
    i32 844645459, label %194
  ]

194:                                              ; preds = %192
  %195 = load ptr, ptr %9, align 8, !tbaa !35
  %196 = getelementptr inbounds nuw %struct.AVStream, ptr %195, i32 0, i32 3
  %197 = load ptr, ptr %196, align 8, !tbaa !37
  %198 = getelementptr inbounds nuw %struct.AVCodecParameters, ptr %197, i32 0, i32 1
  store i32 81924, ptr %198, align 4, !tbaa !51
  %199 = load ptr, ptr %9, align 8, !tbaa !35
  %200 = getelementptr inbounds nuw %struct.AVStream, ptr %199, i32 0, i32 3
  %201 = load ptr, ptr %200, align 8, !tbaa !37
  %202 = getelementptr inbounds nuw %struct.AVCodecParameters, ptr %201, i32 0, i32 24
  %203 = getelementptr inbounds nuw %struct.AVChannelLayout, ptr %202, i32 0, i32 1
  %204 = load i32, ptr %203, align 4, !tbaa !48
  %205 = mul nsw i32 1, %204
  %206 = load ptr, ptr %9, align 8, !tbaa !35
  %207 = getelementptr inbounds nuw %struct.AVStream, ptr %206, i32 0, i32 3
  %208 = load ptr, ptr %207, align 8, !tbaa !37
  %209 = getelementptr inbounds nuw %struct.AVCodecParameters, ptr %208, i32 0, i32 26
  store i32 %205, ptr %209, align 4, !tbaa !52
  br label %213

210:                                              ; preds = %192
  %211 = load ptr, ptr %3, align 8, !tbaa !18
  %212 = load i32, ptr %5, align 4, !tbaa !9
  call void (ptr, ptr, ...) @avpriv_request_sample(ptr noundef %211, ptr noundef @.str.4, i32 noundef %212)
  store i32 -1163346256, ptr %2, align 4
  store i32 1, ptr %10, align 4
  br label %220

213:                                              ; preds = %194
  %214 = load ptr, ptr %9, align 8, !tbaa !35
  %215 = load ptr, ptr %9, align 8, !tbaa !35
  %216 = getelementptr inbounds nuw %struct.AVStream, ptr %215, i32 0, i32 3
  %217 = load ptr, ptr %216, align 8, !tbaa !37
  %218 = getelementptr inbounds nuw %struct.AVCodecParameters, ptr %217, i32 0, i32 25
  %219 = load i32, ptr %218, align 8, !tbaa !47
  call void @avpriv_set_pts_info(ptr noundef %214, i32 noundef 64, i32 noundef 1, i32 noundef %219)
  store i32 0, ptr %2, align 4
  store i32 1, ptr %10, align 4
  br label %220

220:                                              ; preds = %213, %210, %102, %65, %55, %44, %34
  call void @llvm.lifetime.end.p0(i64 8, ptr %9) #5
  call void @llvm.lifetime.end.p0(i64 4, ptr %8) #5
  call void @llvm.lifetime.end.p0(i64 4, ptr %7) #5
  call void @llvm.lifetime.end.p0(i64 4, ptr %6) #5
  call void @llvm.lifetime.end.p0(i64 4, ptr %5) #5
  call void @llvm.lifetime.end.p0(i64 4, ptr %4) #5
  %221 = load i32, ptr %2, align 4
  ret i32 %221
}