; Function Attrs: nounwind uwtable
define internal range(i32 -1163346256, 1) i32 @threedostr_read_header(ptr noundef %0) #1 {
  %2 = getelementptr inbounds nuw i8, ptr %0, i64 32
  %3 = load ptr, ptr %2, align 8, !tbaa !15
  %4 = tail call i32 @avio_feof(ptr noundef %3) #4
  %5 = icmp eq i32 %4, 0
  br i1 %5, label %.lr.ph, label %._crit_edge.thread

.lr.ph:                                           ; preds = %1, %76
  %.077 = phi ptr [ %.1, %76 ], [ undef, %1 ]
  %.05976 = phi i32 [ %.160, %76 ], [ -1, %1 ]
  %.06275 = phi i32 [ %.163, %76 ], [ 0, %1 ]
  %6 = load ptr, ptr %2, align 8, !tbaa !15
  %7 = tail call i32 @avio_rl32(ptr noundef %6) #4
  %8 = load ptr, ptr %2, align 8, !tbaa !15
  %9 = tail call i32 @avio_rb32(ptr noundef %8) #4
  %10 = icmp ult i32 %9, 8
  br i1 %10, label %.loopexit, label %11

11:                                               ; preds = %.lr.ph
  %12 = add i32 %9, -8
  switch i32 %7, label %75 [
    i32 1280463939, label %76
    i32 1396985427, label %13
    i32 1380206675, label %61
  ]

13:                                               ; preds = %11
  %14 = icmp ult i32 %12, 56
  br i1 %14, label %.loopexit, label %15

15:                                               ; preds = %13
  %16 = load ptr, ptr %2, align 8, !tbaa !15
  %17 = tail call i64 @avio_skip(ptr noundef %16, i64 noundef 8) #4
  %18 = load ptr, ptr %2, align 8, !tbaa !15
  %19 = tail call i32 @avio_rl32(ptr noundef %18) #4
  %.not71 = icmp eq i32 %19, 1380206675
  br i1 %.not71, label %20, label %.loopexit

20:                                               ; preds = %15
  %21 = load ptr, ptr %2, align 8, !tbaa !15
  %22 = tail call i64 @avio_skip(ptr noundef %21, i64 noundef 24) #4
  %23 = tail call ptr @avformat_new_stream(ptr noundef nonnull %0, ptr noundef null) #4
  %.not72 = icmp eq ptr %23, null
  br i1 %.not72, label %.loopexit, label %24

24:                                               ; preds = %20
  %25 = getelementptr inbounds nuw i8, ptr %23, i64 16
  %26 = load ptr, ptr %25, align 8, !tbaa !30
  store i32 1, ptr %26, align 8, !tbaa !37
  %27 = load ptr, ptr %2, align 8, !tbaa !15
  %28 = tail call i32 @avio_rb32(ptr noundef %27) #4
  %29 = load ptr, ptr %25, align 8, !tbaa !30
  %30 = getelementptr inbounds nuw i8, ptr %29, i64 152
  store i32 %28, ptr %30, align 8, !tbaa !40
  %31 = load ptr, ptr %2, align 8, !tbaa !15
  %32 = tail call i32 @avio_rb32(ptr noundef %31) #4
  %33 = load ptr, ptr %25, align 8, !tbaa !30
  %34 = getelementptr inbounds nuw i8, ptr %33, i64 132
  store i32 %32, ptr %34, align 4, !tbaa !41
  %35 = icmp slt i32 %32, 1
  br i1 %35, label %.loopexit, label %36

36:                                               ; preds = %24
  %37 = getelementptr inbounds nuw i8, ptr %33, i64 152
  %38 = load i32, ptr %37, align 8, !tbaa !40
  %39 = icmp slt i32 %38, 1
  br i1 %39, label %.loopexit, label %40

40:                                               ; preds = %36
  %41 = load ptr, ptr %2, align 8, !tbaa !15
  %42 = tail call i32 @avio_rl32(ptr noundef %41) #4
  %43 = load ptr, ptr %2, align 8, !tbaa !15
  %44 = tail call i64 @avio_skip(ptr noundef %43, i64 noundef 4) #4
  switch i32 %.05976, label %49 [
    i32 -1, label %45
    i32 20, label %45
    i32 3, label %45
  ]

45:                                               ; preds = %40, %40, %40
  %46 = load ptr, ptr %2, align 8, !tbaa !15
  %47 = tail call i32 @avio_rb32(ptr noundef %46) #4
  %48 = add i32 %47, -1
  br label %53

49:                                               ; preds = %40
  %50 = load ptr, ptr %2, align 8, !tbaa !15
  %51 = tail call i32 @avio_rb32(ptr noundef %50) #4
  %52 = shl i32 %51, 4
  br label %53

53:                                               ; preds = %49, %45
  %.sink = phi i32 [ %52, %49 ], [ %48, %45 ]
  %54 = load ptr, ptr %25, align 8, !tbaa !30
  %55 = getelementptr inbounds nuw i8, ptr %54, i64 132
  %56 = load i32, ptr %55, align 4, !tbaa !41
  %57 = udiv i32 %.sink, %56
  %58 = zext i32 %57 to i64
  %59 = getelementptr inbounds nuw i8, ptr %23, i64 48
  store i64 %58, ptr %59, align 8, !tbaa !42
  %60 = add i32 %9, -64
  br label %76

61:                                               ; preds = %11
  %62 = icmp ugt i32 %12, 120
  br i1 %62, label %63, label %76

63:                                               ; preds = %61
  %64 = load ptr, ptr %2, align 8, !tbaa !15
  %65 = tail call i64 @avio_skip(ptr noundef %64, i64 noundef 116) #4
  %66 = add i32 %9, -128
  %67 = load ptr, ptr %2, align 8, !tbaa !15
  %68 = tail call i32 @avio_rl32(ptr noundef %67) #4
  %69 = icmp eq i32 %68, 1280463939
  %70 = icmp ugt i32 %66, 4
  %or.cond5 = and i1 %70, %69
  br i1 %or.cond5, label %71, label %76

71:                                               ; preds = %63
  %72 = load ptr, ptr %2, align 8, !tbaa !15
  %73 = tail call i32 @avio_rb32(ptr noundef %72) #4
  %74 = add i32 %9, -132
  br label %76

75:                                               ; preds = %11
  tail call void (ptr, i32, ptr, ...) @av_log(ptr noundef nonnull %0, i32 noundef 48, ptr noundef nonnull @.str.3, i32 noundef %7) #4
  br label %76

76:                                               ; preds = %11, %61, %71, %63, %75, %53
  %.163 = phi i32 [ %.06275, %75 ], [ %.06275, %71 ], [ %.06275, %63 ], [ %.06275, %61 ], [ %42, %53 ], [ %.06275, %11 ]
  %.061 = phi i32 [ %12, %75 ], [ %74, %71 ], [ %66, %63 ], [ %12, %61 ], [ %60, %53 ], [ %12, %11 ]
  %.160 = phi i32 [ %.05976, %75 ], [ %73, %71 ], [ %.05976, %63 ], [ %.05976, %61 ], [ %.05976, %53 ], [ %12, %11 ]
  %.158 = phi i32 [ 0, %75 ], [ 0, %71 ], [ 0, %63 ], [ 0, %61 ], [ 1, %53 ], [ 0, %11 ]
  %.1 = phi ptr [ %.077, %75 ], [ %.077, %71 ], [ %.077, %63 ], [ %.077, %61 ], [ %23, %53 ], [ %.077, %11 ]
  %77 = load ptr, ptr %2, align 8, !tbaa !15
  %78 = zext i32 %.061 to i64
  %79 = tail call i64 @avio_skip(ptr noundef %77, i64 noundef %78) #4
  %80 = load ptr, ptr %2, align 8, !tbaa !15
  %81 = tail call i32 @avio_feof(ptr noundef %80) #4
  %82 = or i32 %81, %.158
  %83 = icmp eq i32 %82, 0
  br i1 %83, label %.lr.ph, label %._crit_edge, !llvm.loop !43

._crit_edge:                                      ; preds = %76
  %cond = icmp eq i32 %.163, 844645459
  br i1 %cond, label %84, label %._crit_edge.thread

84:                                               ; preds = %._crit_edge
  %85 = getelementptr inbounds nuw i8, ptr %.1, i64 16
  %86 = load ptr, ptr %85, align 8, !tbaa !30
  %87 = getelementptr inbounds nuw i8, ptr %86, i64 4
  store i32 81924, ptr %87, align 4, !tbaa !44
  %88 = getelementptr inbounds nuw i8, ptr %86, i64 132
  %89 = load i32, ptr %88, align 4, !tbaa !41
  %90 = getelementptr inbounds nuw i8, ptr %86, i64 156
  store i32 %89, ptr %90, align 4, !tbaa !45
  %91 = getelementptr inbounds nuw i8, ptr %86, i64 152
  %92 = load i32, ptr %91, align 8, !tbaa !40
  tail call void @avpriv_set_pts_info(ptr noundef %.1, i32 noundef 64, i32 noundef 1, i32 noundef %92) #4
  br label %.loopexit

._crit_edge.thread:                               ; preds = %1, %._crit_edge
  %.062.lcssa82 = phi i32 [ %.163, %._crit_edge ], [ 0, %1 ]
  tail call void (ptr, ptr, ...) @avpriv_request_sample(ptr noundef nonnull %0, ptr noundef nonnull @.str.4, i32 noundef %.062.lcssa82) #4
  br label %.loopexit

.loopexit:                                        ; preds = %24, %36, %20, %15, %13, %.lr.ph, %84, %._crit_edge.thread
  %.064 = phi i32 [ 0, %84 ], [ -1163346256, %._crit_edge.thread ], [ -1094995529, %24 ], [ -1094995529, %36 ], [ -12, %20 ], [ -1094995529, %15 ], [ -1094995529, %13 ], [ -1094995529, %.lr.ph ]
  ret i32 %.064
}